; Function Attrs: nounwind uwtable
define internal i32 @_sort_topo_by_avail_cnt(ptr noundef readonly captures(none) %0, ptr noundef readonly captures(none) %1) #0 {
  %3 = load ptr, ptr @nonalloc_gres, align 8
  %4 = load i32, ptr %0, align 4
  %5 = sext i32 %4 to i64
  %6 = getelementptr inbounds i64, ptr %3, i64 %5
  %7 = load i32, ptr %1, align 4
  %8 = sext i32 %7 to i64
  %9 = getelementptr inbounds i64, ptr %3, i64 %8
  %10 = tail call i32 @slurm_sort_int64_list_desc(ptr noundef %6, ptr noundef %9) #8
  ret i32 %10
}